; Function Attrs: mustprogress nounwind uwtable
define dso_local void @_ZN21btCollisionDispatcherD0Ev(ptr noundef nonnull align 8 dereferenceable(20816) initializes((0, 8)) %0) unnamed_addr #2 align 2 personality ptr @__gxx_personality_v0 {
  store ptr getelementptr inbounds nuw inrange(-16, 128) (i8, ptr @_ZTV21btCollisionDispatcher, i64 16), ptr %0, align 8, !tbaa !4
  %2 = getelementptr inbounds nuw i8, ptr %0, i64 32
  %3 = load ptr, ptr %2, align 8, !tbaa !20
  %.not.i.i.i.i = icmp eq ptr %3, null
  br i1 %.not.i.i.i.i, label %_ZN21btCollisionDispatcherD2Ev.exit, label %4

4:                                                ; preds = %1
  %5 = getelementptr inbounds nuw i8, ptr %0, i64 40
  %6 = load i8, ptr %5, align 8, !tbaa !19, !range !65, !noundef !66
  %7 = trunc nuw i8 %6 to i1
  br i1 %7, label %8, label %_ZN21btCollisionDispatcherD2Ev.exit

8:                                                ; preds = %4
  invoke void @_Z21btAlignedFreeInternalPv(ptr noundef nonnull %3)
          to label %_ZN21btCollisionDispatcherD2Ev.exit unwind label %9

9:                                                ; preds = %8
  %10 = landingpad { ptr, i32 }
          catch ptr null
  %11 = extractvalue { ptr, i32 } %10, 0
  tail call void @__clang_call_terminate(ptr %11) #12
  unreachable

_ZN21btCollisionDispatcherD2Ev.exit:              ; preds = %1, %4, %8
  %12 = getelementptr inbounds nuw i8, ptr %0, i64 20
  %13 = getelementptr inbounds nuw i8, ptr %0, i64 40
  store i8 1, ptr %13, align 8, !tbaa !19
  store ptr null, ptr %2, align 8, !tbaa !20
  store i32 0, ptr %12, align 4, !tbaa !21
  %14 = getelementptr inbounds nuw i8, ptr %0, i64 24
  store i32 0, ptr %14, align 8, !tbaa !22
  tail call void @_ZN12btDispatcherD2Ev(ptr noundef nonnull align 8 dereferenceable(20816) %0) #11
  tail call void @_ZdlPvm(ptr noundef nonnull %0, i64 noundef 20816) #13
  ret void
}